ccopy_reg
_reconstructor
p1
(cmdiosvcor.prj_helpers
PickleDict
p2
c__builtin__
dict
p3
(dp4
(I2
I2
I101300
F273.14999999999998
NI00
F1.0000000000000001e-09
tp5
((dp6
((g1
(csympy.core.symbol
Symbol
p7
c__builtin__
object
p8
NtRp9
(dp10
S'_a_inprogress'
p11
(lp12
sS'name'
p13
S'P'
sS'_assume_type_keys'
p14
NsS'_args'
p15
(tsS'_assumptions'
p16
(dp17
S'real'
p18
NsS'even'
p19
NsS'comparable'
p20
I00
sS'nonpositive'
p21
NsS'unbounded'
p22
NsS'negative'
p23
NsS'nonnegative'
p24
NssS'is_commutative'
p25
I01
sS'_mhash'
p26
I4899493074659906803
sbI2
t(g1
(g7
g8
NtRp27
(dp28
g11
(lp29
sg13
S'T'
sg14
Nsg15
(tsg16
(dp30
g18
Nsg19
Nsg20
I00
sS'irrational'
p31
Nsg21
NsS'positive'
p32
Nsg23
Nsg24
NsS'infinitesimal'
p33
NsS'bounded'
p34
Nsg22
NsS'integer'
p35
NsS'imaginary'
p36
Nssg25
I01
sg26
I4901320383894437591
sbI1
ttp37
g1
(csympy.core.mul
Mul
p38
g8
NtRp39
(dp40
g11
(lp41
sg26
Nsg14
Nsg15
(g1
(csympy.core.numbers
Float
p42
g8
NtRp43
((I0
S'193f82ee880d8bL'
I-108
I53
t(dp44
S'_prec'
p45
I53
sg11
(lp46
sg26
Nsg14
Nsg15
(tsg16
(dp47
S'real'
p48
I01
sS'nonzero'
p49
I01
sS'comparable'
p50
I01
sS'noninteger'
p51
I01
sS'irrational'
p52
I00
sS'infinitesimal'
p53
I00
sS'composite'
p54
I00
sS'unbounded'
p55
I00
sS'even'
p56
I00
sS'prime'
p57
I00
sS'zero'
p58
I00
sS'complex'
p59
I01
sS'bounded'
p60
I01
sS'integer'
p61
I00
sS'imaginary'
p62
I00
sS'finite'
p63
I01
sS'odd'
p64
I00
sS'commutative'
p65
I01
sstbg1
(csympy.core.power
Pow
p66
g8
NtRp67
(dp68
g11
(lp69
sg14
Nsg15
(g1
(csympy.physics.units
Unit
p70
g8
NtRp71
(dp72
g11
(lp73
sg13
S'kelvin'
p74
sg14
Nsg15
(tsg16
(dp75
S'real'
p76
I01
sS'nonzero'
p77
I01
sS'comparable'
p78
NsS'commutative'
p79
I01
sS'nonpositive'
p80
I00
sS'positive'
p81
I01
sS'negative'
p82
I00
sS'nonnegative'
p83
I01
sS'zero'
p84
I00
sg59
I01
sg34
Nsg35
NsS'imaginary'
p85
I00
sg31
NssS'abbrev'
p86
S'K'
sg26
I-9032682616805925166
sbg1
(csympy.core.numbers
NegativeOne
p87
g8
NtRp88
(dp89
S'q'
I1
sS'p'
I-1
sg11
(lp90
sg26
I7661115593229879962
sg14
Nsg15
(tsg16
(dp91
S'nonpositive'
p92
I01
sg55
I00
sS'zero'
p93
I00
sg64
I01
sg77
I01
sg65
I01
sg32
I00
sS'noninteger'
p94
I00
sS'negative'
p95
I01
sg59
I01
sS'rational'
p96
I01
sg63
I01
sS'real'
p97
I01
sS'even'
p98
I00
sg50
I01
sS'irrational'
p99
I00
sg54
I00
sg60
I01
sS'integer'
p100
I01
sg62
I00
sg57
I00
sS'nonnegative'
p101
I00
sg53
I00
ssbtp102
sg16
(dp103
g76
I01
sg77
I01
sg78
Nsg79
I01
sg80
I00
sg32
I01
sg82
I00
sg83
I01
sg84
I00
sg59
I01
sg85
I00
ssg25
I01
sg26
I-3271776537739056200
sbg1
(g66
g8
NtRp104
(dp105
g11
(lp106
sg14
Nsg15
(g1
(g70
g8
NtRp107
(dp108
g11
(lp109
sg13
S'kilogram'
p110
sg14
Nsg15
(tsg16
(dp111
g76
I01
sg77
I01
sg78
Nsg79
I01
sg80
I00
sg81
I01
sg82
I00
sg83
I01
sg84
I00
sg59
I01
sg22
Nsg85
I00
ssg86
S'kg'
p112
sg26
I9153636934653392859
sbg88
tp113
sg16
(dp114
sg25
I01
sg26
I-3979862724719233491
sbg1
(g66
g8
NtRp115
(dp116
g11
(lp117
sg14
Nsg15
(g1
(g70
g8
NtRp118
(dp119
g11
(lp120
sg13
S'meter'
p121
sg14
Nsg15
(tsg16
(dp122
g76
I01
sg77
I01
sg78
Nsg79
I01
sg80
I00
sg81
I01
sg33
Nsg82
I00
sg83
I01
sg84
I00
sg59
I01
sg34
Nsg22
Nsg35
Nsg85
I00
ssg86
S'm'
sg26
I-6601478709189999165
sbg88
tp123
sg16
(dp124
g18
I01
sg77
I01
sg78
Nsg65
I01
sg80
I00
sg32
I01
sg19
Nsg82
I00
sg83
I01
sg84
I00
sg59
I01
sg34
Nsg35
Nsg62
I00
sS'odd'
p125
Nsg31
Nssg25
I01
sg26
I4283542072516180213
sbg1
(g66
g8
NtRp126
(dp127
g11
(lp128
sg14
Nsg15
(g1
(g70
g8
NtRp129
(dp130
g11
(lp131
sg13
S'second'
p132
sg14
Nsg15
(tsg16
(dp133
g76
I01
sg77
I01
sg79
I01
sg80
I00
sg81
I01
sg82
I00
sg83
I01
sg84
I00
sg59
I01
sg22
Nsg85
I00
ssg86
S's'
sg26
I4012195690929253469
sbg1
(csympy.core.numbers
Integer
p134
g8
NtRp135
(dp136
S'q'
I1
sS'p'
I4
sg11
(lp137
sg26
I6250429581018510483
sg14
Nsg15
(tsg16
(dp138
g97
I01
sg77
I01
sg50
I01
sg65
I01
sg80
I00
sg55
I00
sg94
I00
sg59
I01
sg83
I01
sg93
I00
sg53
I00
sg60
I01
sg82
I00
sg96
I01
sg32
I01
sg100
I01
sg62
I00
sg63
I01
sg99
I00
ssbtp139
sg16
g114
sg25
I01
sg26
I-7177191796451735948
sbtp140
sg16
(dp141
sg25
I01
sbs((g9
I1
t(g27
I1
ttp142
g1
(g38
g8
NtRp143
(dp144
g11
(lp145
sg26
Nsg14
Nsg15
(g1
(g42
g8
NtRp146
((I1
S'831caab9e7089L'
I-79
I52
t(dp147
g45
I53
sg11
(lp148
sg26
Nsg14
Nsg15
(tsg16
g47
stbg67
g1
(g66
g8
NtRp149
(dp150
g11
(lp151
sg14
Nsg15
(g118
g1
(g134
g8
NtRp152
(dp153
S'q'
I1
sS'p'
I-2
sg11
(lp154
sg26
I-6250424536232650227
sg14
Nsg15
(tsg16
(dp155
g97
I01
sg77
I01
sg50
I01
sg65
I01
sg92
I01
sg54
I00
sg55
I00
sg94
I00
sg59
I01
sg95
I01
sg101
I00
sg57
I00
sg93
I00
sg53
I00
sg60
I01
sg96
I01
sg32
I00
sg100
I01
sg62
I00
sg63
I01
sg99
I00
ssbtp156
sg16
g114
sg25
I01
sg26
I1352048131140086256
sbg1
(g66
g8
NtRp157
(dp158
g11
(lp159
sg14
Nsg15
(g129
g1
(g134
g8
NtRp160
(dp161
S'q'
I1
sS'p'
I2
sg11
(lp162
sg26
I6250422013836517545
sg14
Nsg15
(tsg16
(dp163
g97
I01
sg77
I01
sg50
I01
sg65
I01
sg80
I00
sS'even'
p164
I01
sg55
I00
sg94
I00
sg59
I01
sg83
I01
sg93
I00
sg53
I00
sg60
I01
sg82
I00
sg96
I01
sg32
I01
sg100
I01
sg62
I00
sg63
I01
sg64
I00
sg99
I00
ssbtp165
sg16
g114
sg25
I01
sg26
I4197194727447389918
sbtp166
sg16
g141
sg25
I01
sbs((g9
I1
t(g27
I0
ttp167
g1
(g38
g8
NtRp168
(dp169
g11
(lp170
sg26
Nsg14
Nsg15
(g1
(g42
g8
NtRp171
((I0
S'11124b58e3d59fL'
I-73
I53
t(dp172
g45
I53
sg11
(lp173
sg26
Nsg14
Nsg15
(tsg16
g47
stbg149
g157
tp174
sg16
g141
sg25
I01
sbs((g9
I1
t(g27
I2
ttp175
g1
(g38
g8
NtRp176
(dp177
g11
(lp178
sg26
Nsg14
Nsg15
(g1
(g42
g8
NtRp179
((I0
S'bd985ee02164fL'
I-84
I52
t(dp180
g45
I53
sg11
(lp181
sg26
Nsg14
Nsg15
(tsg16
g47
stbg1
(g66
g8
NtRp182
(dp183
g11
(lp184
sg14
Nsg15
(g71
g152
tp185
sg16
(dp186
g76
I01
sg77
I01
sg78
Nsg79
I01
sg80
I00
sg32
I01
sg82
I00
sg83
I01
sg84
I00
sg59
I01
sg85
I00
ssg25
I01
sg26
I-6577578145866409507
sbg149
g157
tp187
sg16
g141
sg25
I01
sbs((g9
I2
t(g27
I2
ttp188
g1
(g38
g8
NtRp189
(dp190
g11
(lp191
sg26
Nsg14
Nsg15
(g1
(g42
g8
NtRp192
((I1
S'7dc128e51a85dL'
I-110
I51
t(dp193
g45
I53
sg11
(lp194
sg26
Nsg14
Nsg15
(tsg16
g47
stbg182
g104
g115
g126
tp195
sg16
g141
sg25
I01
sbs((g9
I0
t(g27
I2
ttp196
g1
(g38
g8
NtRp197
(dp198
g11
(lp199
sg26
Nsg14
Nsg15
(g1
(g42
g8
NtRp200
((I1
S'12a3e477a0e971L'
I-58
I53
t(dp201
g45
I53
sg11
(lp202
sg26
Nsg14
Nsg15
(tsg16
g47
stbg182
g1
(g66
g8
NtRp203
(dp204
g11
(lp205
sg14
Nsg15
(g118
g1
(g134
g8
NtRp206
(dp207
S'q'
I1
sS'p'
I-3
sg11
(lp208
sg26
I-6250423275033321306
sg14
Nsg15
(tsg16
(dp209
g97
I01
sg77
I01
sg50
I01
sg65
I01
sg53
I00
sg55
I00
sg94
I00
sg93
I00
sg59
I01
sg60
I01
sg96
I01
sg100
I01
sg62
I00
sg63
I01
sg99
I00
ssbtp210
sg16
g114
sg25
I01
sg26
I2486715139929798081
sbg107
tp211
sg16
g141
sg25
I01
sbs((g9
I0
t(g27
I1
ttp212
g1
(g38
g8
NtRp213
(dp214
g11
(lp215
sg26
Nsg14
Nsg15
(g1
(g42
g8
NtRp216
((I0
S'8abfea26b2d83L'
I-55
I52
t(dp217
g45
I53
sg11
(lp218
sg26
Nsg14
Nsg15
(tsg16
g47
stbg67
g203
g107
tp219
sg16
g141
sg25
I01
sbs((g9
I2
t(g27
I0
ttp220
g1
(g38
g8
NtRp221
(dp222
g11
(lp223
sg26
Nsg14
Nsg15
(g1
(g42
g8
NtRp224
((I1
S'55e652125988dL'
I-100
I51
t(dp225
g45
I53
sg11
(lp226
sg26
Nsg14
Nsg15
(tsg16
g47
stbg104
g115
g126
tp227
sg16
g141
sg25
I01
sbs((g9
I0
t(g27
I0
ttp228
g1
(g38
g8
NtRp229
(dp230
g11
(lp231
sg26
Nsg14
Nsg15
(g1
(g42
g8
NtRp232
((I0
S'1f3ebe9cf1c107L'
I-43
I53
t(dp233
g45
I53
sg11
(lp234
sg26
Nsg14
Nsg15
(tsg16
g47
stbg203
g107
tp235
sg16
g141
sg25
I01
sbs(dp236
g37
g1
(g42
g8
NtRp237
((I1
S'a75L'
I-108
I12
t(dp238
g45
I53
sg11
(lp239
sg26
I-8692383952499499364
sg14
Nsg15
(tsg16
g47
stbsg142
g1
(g42
g8
NtRp240
((I1
S'1L'
I-77
I1
t(dp241
g45
I53
sg11
(lp242
sg26
I-2311598626623154086
sg14
Nsg15
(tsg16
g47
stbsg167
g1
(g42
g8
NtRp243
((I1
S'1L'
I-73
I1
t(dp244
g45
I53
sg11
(lp245
sg26
I-3896833374111489146
sg14
Nsg15
(tsg16
g47
stbsg175
g1
(g42
g8
NtRp246
((I0
S'1d7L'
I-85
I9
t(dp247
g45
I53
sg11
(lp248
sg26
I-7518478993820239953
sg14
Nsg15
(tsg16
g47
stbsg188
g1
(g42
g8
NtRp249
((I1
S'229L'
I-111
I10
t(dp250
g45
I53
sg11
(lp251
sg26
I5232803526103362255
sg14
Nsg15
(tsg16
g47
stbsg196
g1
(g42
g8
NtRp252
((I1
S'3L'
I-58
I2
t(dp253
g45
I53
sg11
(lp254
sg26
I-2244918488044303974
sg14
Nsg15
(tsg16
g47
stbsg212
g1
(g42
g8
NtRp255
((I1
S'fL'
I-55
I4
t(dp256
g45
I53
sg11
(lp257
sg26
I5182366836064649855
sg14
Nsg15
(tsg16
g47
stbsg220
g1
(csympy.core.numbers
Zero
p258
g8
NtRp259
(dp260
S'q'
I1
sS'p'
I0
sg11
(lp261
sg26
I-3157700006611994746
sg14
Nsg15
(tsg16
(dp262
g92
I01
sg55
I00
sS'zero'
p263
I01
sS'odd'
p264
I00
sS'even'
p265
I01
sg65
I01
sS'positive'
p266
I00
sS'noninteger'
p267
I00
sS'negative'
p268
I00
sg59
I01
sS'rational'
p269
I01
sS'finite'
p270
I00
sg97
I01
sS'nonzero'
p271
I00
sg50
I01
sS'irrational'
p272
I00
sS'composite'
p273
I00
sg60
I01
sS'integer'
p274
I01
sg62
I00
sS'prime'
p275
I00
sg83
I01
sS'infinitesimal'
p276
I01
ssbsg228
g1
(g42
g8
NtRp277
((I0
S'6509L'
I-43
I15
t(dp278
g45
I53
sg11
(lp279
sg26
I5605425669484068117
sg14
Nsg15
(tsg16
g47
stbstp280
stRp281
(lp282
(g5
g280
tp283
ab.