(dp1
(I2
I2
NNNI00
F1.0000000000000001e-09
I00
I00
tp2
((dp3
((ccopy_reg
_reconstructor
p4
(csympy.core.symbol
Symbol
p5
c__builtin__
object
p6
NtRp7
(dp8
S'_a_inprogress'
p9
(lp10
sS'name'
p11
S'P'
sS'_assume_type_keys'
p12
NsS'_args'
p13
(tsS'_assumptions'
p14
(dp15
S'comparable'
p16
I00
ssS'is_commutative'
p17
I01
sS'_mhash'
p18
I4899493074659906803
sbI2
t(g4
(g5
g6
NtRp19
(dp20
g9
(lp21
sg11
S'T'
sg12
Nsg13
(tsg14
(dp22
S'real'
p23
Nsg16
I00
sS'nonpositive'
p24
NsS'positive'
p25
NsS'negative'
p26
NsS'nonnegative'
p27
NsS'infinitesimal'
p28
NsS'bounded'
p29
NsS'unbounded'
p30
NsS'integer'
p31
Nssg17
I01
sg18
I4901320383894437591
sbI1
ttp32
g4
(csympy.core.mul
Mul
p33
g6
NtRp34
(dp35
g9
(lp36
sg18
I-5158789224318894594
sg12
Nsg13
(g4
(csympy.core.numbers
Float
p37
g6
NtRp38
((I0
S'1ceb257e4e8b31L'
I-124
I53
t(dp39
S'_prec'
p40
I53
sg9
(lp41
sg18
I6283234972511255986
sg12
Nsg13
(tsg14
(dp42
S'real'
p43
I01
sS'nonzero'
p44
I01
sS'comparable'
p45
I01
sS'noninteger'
p46
I01
sS'irrational'
p47
I00
sS'infinitesimal'
p48
I00
sS'composite'
p49
I00
sS'unbounded'
p50
I00
sS'even'
p51
I00
sS'prime'
p52
I00
sS'zero'
p53
I00
sS'complex'
p54
I01
sS'bounded'
p55
I01
sS'integer'
p56
I00
sS'imaginary'
p57
I00
sS'finite'
p58
I01
sS'odd'
p59
I00
sS'commutative'
p60
I01
sstbg4
(csympy.core.power
Pow
p61
g6
NtRp62
(dp63
g9
(lp64
sg12
Nsg13
(g4
(csympy.physics.units
Unit
p65
g6
NtRp66
(dp67
g9
(lp68
sg11
S'kelvin'
p69
sg12
Nsg13
(tsg14
(dp70
S'real'
p71
I01
sS'nonzero'
p72
I01
sS'comparable'
p73
NsS'commutative'
p74
I01
sS'nonpositive'
p75
I00
sS'positive'
p76
I01
sS'negative'
p77
I00
sS'nonnegative'
p78
I01
sS'zero'
p79
I00
sg54
I01
sg29
NsS'imaginary'
p80
I00
ssS'abbrev'
p81
S'K'
sg18
I-9032682616805925166
sbg4
(csympy.core.numbers
NegativeOne
p82
g6
NtRp83
(dp84
S'q'
I1
sS'p'
I-1
sg9
(lp85
sg18
I7661115593229879962
sg12
Nsg13
(tsg14
(dp86
S'nonpositive'
p87
I01
sg50
I00
sS'zero'
p88
I00
sg59
I01
sg72
I01
sg60
I01
sg25
I00
sS'noninteger'
p89
I00
sS'negative'
p90
I01
sg54
I01
sS'rational'
p91
I01
sg58
I01
sS'real'
p92
I01
sS'even'
p93
I00
sg45
I01
sS'irrational'
p94
I00
sg49
I00
sg55
I01
sS'integer'
p95
I01
sg57
I00
sg52
I00
sS'nonnegative'
p96
I00
sg48
I00
ssbtp97
sg14
(dp98
sg17
I01
sg18
I-3271776537739056200
sbg4
(g61
g6
NtRp99
(dp100
g9
(lp101
sg12
Nsg13
(g4
(g65
g6
NtRp102
(dp103
g9
(lp104
sg11
S'kilogram'
p105
sg12
Nsg13
(tsg14
(dp106
g71
I01
sg72
I01
sg73
Nsg74
I01
sg75
I00
sg76
I01
sg28
Nsg77
I00
sg78
I01
sg79
I00
sg54
I01
sg29
Nsg30
Nsg31
Nsg80
I00
ssg81
S'kg'
p107
sg18
I9153636934653392859
sbg83
tp108
sg14
(dp109
g23
I01
sS'even'
p110
Nsg73
Nsg60
I01
sg75
I00
sg25
I01
sg77
I00
sg78
I01
sg79
I00
sg54
I01
sg29
Nsg31
Nsg57
I00
sg72
I01
sS'odd'
p111
NsS'irrational'
p112
Nssg17
I01
sg18
I-3979862724719233491
sbg4
(g61
g6
NtRp113
(dp114
g9
(lp115
sg12
Nsg13
(g4
(g65
g6
NtRp116
(dp117
g9
(lp118
sg11
S'meter'
p119
sg12
Nsg13
(tsg14
(dp120
g71
I01
sg72
I01
sg73
Nsg74
I01
sg75
I00
sg76
I01
sg77
I00
sg78
I01
sg79
I00
sg54
I01
sg29
Nsg30
Nsg80
I00
ssg81
S'm'
sg18
I-6601478709189999165
sbg83
tp121
sg14
g98
sg17
I01
sg18
I4283542072516180213
sbg4
(g61
g6
NtRp122
(dp123
g9
(lp124
sg12
Nsg13
(g4
(g65
g6
NtRp125
(dp126
g9
(lp127
sg11
S'second'
p128
sg12
Nsg13
(tsg14
(dp129
g71
I01
sg72
I01
sg74
I01
sg75
I00
sg76
I01
sg77
I00
sg78
I01
sg79
I00
sg54
I01
sg30
Nsg80
I00
ssg81
S's'
sg18
I4012195690929253469
sbg4
(csympy.core.numbers
Integer
p130
g6
NtRp131
(dp132
S'q'
I1
sS'p'
I4
sg9
(lp133
sg18
I6250429581018510483
sg12
Nsg13
(tsg14
(dp134
g92
I01
sg72
I01
sg45
I01
sg60
I01
sg48
I00
sg50
I00
sg89
I00
sg88
I00
sg54
I01
sg55
I01
sg91
I01
sg95
I01
sg57
I00
sg58
I01
sg94
I00
ssbtp135
sg14
g98
sg17
I01
sg18
I-7177191796451735948
sbtp136
sg14
(dp137
sg17
I01
sbs((g7
I1
t(g19
I1
ttp138
g4
(g33
g6
NtRp139
(dp140
g9
(lp141
sg18
I-6686333721480545341
sg12
Nsg13
(g4
(g37
g6
NtRp142
((I1
S'6d32c75c9f5edL'
I-86
I51
t(dp143
g40
I53
sg9
(lp144
sg18
I-3278109828419793519
sg12
Nsg13
(tsg14
g42
stbg62
g4
(g61
g6
NtRp145
(dp146
g9
(lp147
sg12
Nsg13
(g116
g4
(g130
g6
NtRp148
(dp149
S'q'
I1
sS'p'
I-2
sg9
(lp150
sg18
I-6250424536232650227
sg12
Nsg13
(tsg14
g134
sbtp151
sg14
g98
sg17
I01
sg18
I1352048131140086256
sbg4
(g61
g6
NtRp152
(dp153
g9
(lp154
sg12
Nsg13
(g125
g4
(g130
g6
NtRp155
(dp156
S'q'
I1
sS'p'
I2
sg9
(lp157
sg18
I6250422013836517545
sg12
Nsg13
(tsg14
(dp158
g92
I01
sg72
I01
sg45
I01
sg60
I01
sg75
I00
sS'even'
p159
I01
sg50
I00
sg89
I00
sg54
I01
sg78
I01
sg88
I00
sg48
I00
sg55
I01
sg77
I00
sg91
I01
sg25
I01
sg95
I01
sg57
I00
sg58
I01
sg59
I00
sg94
I00
ssbtp160
sg14
g98
sg17
I01
sg18
I4197194727447389918
sbtp161
sg14
g137
sg17
I01
sbs((g7
I1
t(g19
I0
ttp162
g4
(g33
g6
NtRp163
(dp164
g9
(lp165
sg18
I-351432941043586447
sg12
Nsg13
(g4
(g37
g6
NtRp166
((I0
S'89be7fe908e0fL'
I-78
I52
t(dp167
g40
I53
sg9
(lp168
sg18
I8926989999871626727
sg12
Nsg13
(tsg14
g42
stbg145
g152
tp169
sg14
g137
sg17
I01
sbs((g7
I1
t(g19
I2
ttp170
g4
(g33
g6
NtRp171
(dp172
g9
(lp173
sg18
I6551663946419349999
sg12
Nsg13
(g4
(g37
g6
NtRp174
((I0
S'113037d6b99ae3L'
I-94
I53
t(dp175
g40
I53
sg9
(lp176
sg18
I8562883017452943550
sg12
Nsg13
(tsg14
g42
stbg4
(g61
g6
NtRp177
(dp178
g9
(lp179
sg12
Nsg13
(g66
g148
tp180
sg14
g98
sg17
I01
sg18
I-6577578145866409507
sbg145
g152
tp181
sg14
g137
sg17
I01
sbs((g7
I2
t(g19
I2
ttp182
g4
(g33
g6
NtRp183
(dp184
g9
(lp185
sg18
I-3583401118522362360
sg12
Nsg13
(g4
(g37
g6
NtRp186
((I1
S'360273fd2110bL'
I-127
I50
t(dp187
g40
I53
sg9
(lp188
sg18
I3312660809313112817
sg12
Nsg13
(tsg14
g42
stbg177
g99
g113
g122
tp189
sg14
g137
sg17
I01
sbs((g7
I0
t(g19
I2
ttp190
g4
(g33
g6
NtRp191
(dp192
g9
(lp193
sg18
I-4187116914643452907
sg12
Nsg13
(g4
(g37
g6
NtRp194
((I1
S'9c29b683e47ffL'
I-58
I52
t(dp195
g40
I53
sg9
(lp196
sg18
I-629717305217943892
sg12
Nsg13
(tsg14
g42
stbg177
g4
(g61
g6
NtRp197
(dp198
g9
(lp199
sg12
Nsg13
(g116
g4
(g130
g6
NtRp200
(dp201
S'q'
I1
sS'p'
I-3
sg9
(lp202
sg18
I-6250423275033321306
sg12
Nsg13
(tsg14
g134
sbtp203
sg14
g98
sg17
I01
sg18
I2486715139929798081
sbg102
tp204
sg14
g137
sg17
I01
sbs((g7
I0
t(g19
I1
ttp205
g4
(g33
g6
NtRp206
(dp207
g9
(lp208
sg18
I-9049564122474368681
sg12
Nsg13
(g4
(g37
g6
NtRp209
((I1
S'106af9b499aaa7L'
I-54
I53
t(dp210
g40
I53
sg9
(lp211
sg18
I-5611688216148070491
sg12
Nsg13
(tsg14
g42
stbg62
g197
g102
tp212
sg14
g137
sg17
I01
sbs((g7
I2
t(g19
I0
ttp213
g4
(g33
g6
NtRp214
(dp215
g9
(lp216
sg18
I-1731875127208972211
sg12
Nsg13
(g4
(g37
g6
NtRp217
((I1
S'983caee953915L'
I-115
I52
t(dp218
g40
I53
sg9
(lp219
sg18
I-7891767161568593267
sg12
Nsg13
(tsg14
g42
stbg99
g113
g122
tp220
sg14
g137
sg17
I01
sbs((g7
I0
t(g19
I0
ttp221
g4
(g33
g6
NtRp222
(dp223
g9
(lp224
sg18
I6281088215456855293
sg12
Nsg13
(g4
(g37
g6
NtRp225
((I0
S'1f28618978041L'
I-39
I49
t(dp226
g40
I53
sg9
(lp227
sg18
I3172397892336534491
sg12
Nsg13
(tsg14
g42
stbg197
g102
tp228
sg14
g137
sg17
I01
sbs(dp229
g32
g4
(g33
g6
NtRp230
(dp231
g9
(lp232
sg18
I108339800098622719
sg12
Nsg13
(g4
(g37
g6
NtRp233
((I0
S'15081b449636bL'
I-123
I49
t(dp234
g40
I53
sg9
(lp235
sg18
I-3211267942389594175
sg12
Nsg13
(tsg14
g42
stbg62
g99
g113
g122
tp236
sg14
g137
sg17
I01
sbsg138
g4
(g33
g6
NtRp237
(dp238
g9
(lp239
sg18
I8390514489673515416
sg12
Nsg13
(g4
(g37
g6
NtRp240
((I1
S'27b55fc4970b3L'
I-88
I50
t(dp241
g40
I53
sg9
(lp242
sg18
I4363571108015179288
sg12
Nsg13
(tsg14
g42
stbg62
g145
g152
tp243
sg14
g137
sg17
I01
sbsg162
g4
(g33
g6
NtRp244
(dp245
g9
(lp246
sg18
I-6438045266214829911
sg12
Nsg13
(g4
(g37
g6
NtRp247
((I0
S'3216ba2631c63L'
I-80
I50
t(dp248
g40
I53
sg9
(lp249
sg18
I-1693837043660264801
sg12
Nsg13
(tsg14
g42
stbg145
g152
tp250
sg14
g137
sg17
I01
sbsg170
g4
(g33
g6
NtRp251
(dp252
g9
(lp253
sg18
I1428844284987835645
sg12
Nsg13
(g4
(g37
g6
NtRp254
((I0
S'c80289c29e5L'
I-89
I44
t(dp255
g40
I53
sg9
(lp256
sg18
I8389707846650134652
sg12
Nsg13
(tsg14
g42
stbg177
g145
g152
tp257
sg14
g137
sg17
I01
sbsg182
g4
(g33
g6
NtRp258
(dp259
g9
(lp260
sg18
I-991401442982317631
sg12
Nsg13
(g4
(g37
g6
NtRp261
((I1
S'27479a2c75237L'
I-130
I50
t(dp262
g40
I53
sg9
(lp263
sg18
I4081814575364994694
sg12
Nsg13
(tsg14
g42
stbg177
g99
g113
g122
tp264
sg14
g137
sg17
I01
sbsg190
g4
(g33
g6
NtRp265
(dp266
g9
(lp267
sg18
I2227997680080786755
sg12
Nsg13
(g4
(g37
g6
NtRp268
((I0
S'3fL'
I-59
I6
t(dp269
g40
I53
sg9
(lp270
sg18
I4827659047218372258
sg12
Nsg13
(tsg14
g42
stbg177
g197
g102
tp271
sg14
g137
sg17
I01
sbsg205
g4
(g33
g6
NtRp272
(dp273
g9
(lp274
sg18
I-5790641231616578898
sg12
Nsg13
(g4
(g37
g6
NtRp275
((I0
S'13L'
I-54
I5
t(dp276
g40
I53
sg9
(lp277
sg18
I4105149700973401062
sg12
Nsg13
(tsg14
g42
stbg62
g197
g102
tp278
sg14
g137
sg17
I01
sbsg213
g4
(g33
g6
NtRp279
(dp280
g9
(lp281
sg18
I-5708640551346032665
sg12
Nsg13
(g4
(g37
g6
NtRp282
((I1
S'1badf141b21a7L'
I-116
I49
t(dp283
g40
I53
sg9
(lp284
sg18
I2631887980168897707
sg12
Nsg13
(tsg14
g42
stbg99
g113
g122
tp285
sg14
g137
sg17
I01
sbsg221
g4
(g33
g6
NtRp286
(dp287
g9
(lp288
sg18
I-3105835359315721984
sg12
Nsg13
(g4
(g37
g6
NtRp289
((I1
S'1ddL'
I-41
I9
t(dp290
g40
I53
sg9
(lp291
sg18
I8356029371205604154
sg12
Nsg13
(tsg14
g42
stbg197
g102
tp292
sg14
g137
sg17
I01
sbstp293
s.