ccopy_reg
_reconstructor
p1
(cprj_helpers
PickleDict
p2
c__builtin__
dict
p3
(dp4
(I0
I0
NNI00
F1.0000000000000001e-09
I00
I00
I01
tp5
S'Solving for: rho(P, T)\nUsing provided inital guess:  997.050000000000\ninitial_guess 997.050000000000\nUsing the secant method.\nAssuming dx0 = 99.7050000000000\nSince no tolerances were specified, xreltol assumed =        1e-08\n  i                          x                         dx                          y                         dy             dxi/dx(i-1)**2\n  0           997.050000000000                          -         -3.83653918184e-05                          -                          -\n  1           1096.75500000000           99.7049999999999             -1.88382284643             -1.88378448104                          -\n  2           997.047969395422          -99.7070306045780         -5.55663532606e-06               1.8838172898        -0.0100297915463202\n  3           997.047675292798      -0.000294102624252446         -8.04793590369e-07          4.75184173569e-06       -2.95833488246001e-8\n  4           997.047625482236       -4.98105619044509e-5         -5.96760271407e-13          8.04792993609e-07          -575.868922050800\n  5           997.047625482199      -3.69482222595252e-11          9.04951027308e-14          6.87255374138e-13        -0.0148919190055492\n'
p6
stRp7
(lp8
(g5
g6
tp9
ab.