ccopy_reg
_reconstructor
p1
(cprj_helpers
PickleDict
p2
c__builtin__
dict
p3
(dp4
(I0
I0
NNI00
F1.0000000000000001e-09
I00
I00
I01
tp5
((dp6
((g1
(csympy.core.symbol
Symbol
p7
c__builtin__
object
p8
NtRp9
(dp10
S'_a_inprogress'
p11
(lp12
sS'name'
p13
S'P'
sS'_assume_type_keys'
p14
NsS'_args'
p15
(tsS'_assumptions'
p16
(dp17
S'real'
p18
NsS'comparable'
p19
I00
sS'irrational'
p20
NsS'nonpositive'
p21
NsS'positive'
p22
NsS'negative'
p23
NsS'nonnegative'
p24
NsS'integer'
p25
NsS'imaginary'
p26
NssS'is_commutative'
p27
I01
sS'_mhash'
p28
I4899493074659906803
sbI0
t(g1
(g7
g8
NtRp29
(dp30
g11
(lp31
sg13
S'T'
sg14
Nsg15
(tsg16
(dp32
g18
Nsg19
I00
sg21
Nsg22
Nsg23
Nsg24
NsS'infinitesimal'
p33
NsS'bounded'
p34
NsS'unbounded'
p35
Nsg25
Nssg27
I01
sg28
I4901320383894437591
sbI0
ttp36
g1
(csympy.core.mul
Mul
p37
g8
NtRp38
(dp39
g11
(lp40
sg28
Nsg14
Nsg15
(g1
(csympy.core.numbers
Float
p41
g8
NtRp42
((I0
S'7ca18625e01L'
I-33
I43
t(dp43
S'_prec'
p44
I53
sg11
(lp45
sg28
Nsg14
Nsg15
(tsg16
(dp46
S'real'
p47
I01
sS'nonzero'
p48
I01
sS'comparable'
p49
I01
sS'irrational'
p50
I00
sS'composite'
p51
I00
sS'unbounded'
p52
I00
sS'odd'
p53
I00
sS'noninteger'
p54
I01
sS'complex'
p55
I01
sS'prime'
p56
I00
sS'zero'
p57
I00
sS'infinitesimal'
p58
I00
sS'bounded'
p59
I01
sS'integer'
p60
I00
sS'imaginary'
p61
I00
sS'finite'
p62
I01
sS'even'
p63
I00
sS'commutative'
p64
I01
sstbg1
(csympy.core.power
Pow
p65
g8
NtRp66
(dp67
g11
(lp68
sg14
Nsg15
(g1
(csympy.physics.units
Unit
p69
g8
NtRp70
(dp71
g11
(lp72
sg13
S'meter'
p73
sg14
Nsg15
(tsg16
(dp74
S'real'
p75
I01
sS'nonzero'
p76
I01
sS'comparable'
p77
NsS'commutative'
p78
I01
sS'nonpositive'
p79
I00
sS'positive'
p80
I01
sS'negative'
p81
I00
sS'nonnegative'
p82
I01
sS'zero'
p83
I00
sg55
I01
sg34
Nsg35
NsS'imaginary'
p84
I00
ssS'abbrev'
p85
S'm'
sg28
I-6601478709189999165
sbg1
(csympy.core.numbers
Integer
p86
g8
NtRp87
(dp88
S'q'
I1
sS'p'
I-3
sg11
(lp89
sg28
I-6250423275033321306
sg14
Nsg15
(tsg16
(dp90
S'real'
p91
I01
sg76
I01
sg49
I01
sg64
I01
sS'nonpositive'
p92
I01
sg51
I00
sg52
I00
sS'noninteger'
p93
I00
sS'negative'
p94
I01
sS'nonnegative'
p95
I00
sg56
I00
sS'zero'
p96
I00
sg58
I00
sg59
I01
sS'rational'
p97
I01
sg22
I00
sS'integer'
p98
I01
sg61
I00
sg62
I01
sg55
I01
sS'irrational'
p99
I00
ssbtp100
sg16
(dp101
sg27
I01
sg28
I2486715139929798081
sbg1
(g69
g8
NtRp102
(dp103
g11
(lp104
sg13
S'kilogram'
p105
sg14
Nsg15
(tsg16
(dp106
g75
I01
sg76
I01
sg78
I01
sg79
I00
sg80
I01
sg81
I00
sg82
I01
sg83
I00
sg55
I01
sg35
Nsg84
I00
ssg85
S'kg'
p107
sg28
I9153636934653392859
sbtp108
sg16
(dp109
sg27
I01
sbs(dp110
g36
g1
(g41
g8
NtRp111
((I1
S'145L'
I-43
I9
t(dp112
g44
I53
sg11
(lp113
sg28
I5420796128738944292
sg14
Nsg15
(tsg16
g46
stbstp114
stRp115
(lp116
(g5
g114
tp117
ab.